target datalayout = "e-m:e-p270:32:32-p271:32:32-p272:64:64-i64:64-i128:128-f80:128-n8:16:32:64-S128"
target triple = "x86_64-pc-linux-gnu"

%struct.client_response = type { ptr }

@plugin_type = external constant [0 x i8], align 1
@.str.63 = private unnamed_addr constant [42 x i8] c"%s: %s: mpi/pmi2: in _handle_publish_name\00", align 1
@__func__._handle_publish_name = private unnamed_addr constant [21 x i8] c"_handle_publish_name\00", align 1
@.str.64 = private unnamed_addr constant [8 x i8] c"service\00", align 1
@.str.65 = private unnamed_addr constant [5 x i8] c"port\00", align 1
@.str.66 = private unnamed_addr constant [28 x i8] c"cmd=publish_result info=%s\0A\00", align 1
@.str.67 = private unnamed_addr constant [3 x i8] c"ok\00", align 1
@.str.68 = private unnamed_addr constant [5 x i8] c"fail\00", align 1
@.str.69 = private unnamed_addr constant [43 x i8] c"%s: %s: mpi/pmi2: out _handle_publish_name\00", align 1

; Function Attrs: nounwind uwtable
define internal i32 @_handle_publish_name(i32 noundef %0, i32 noundef %1, ptr noundef %2) #0 {
  %4 = alloca i32, align 4
  %5 = alloca i32, align 4
  %6 = alloca ptr, align 8
  %7 = alloca i32, align 4
  %8 = alloca ptr, align 8
  %9 = alloca ptr, align 8
  %10 = alloca ptr, align 8
  store i32 %0, ptr %4, align 4
  store i32 %1, ptr %5, align 4
  store ptr %2, ptr %6, align 8
  call void @llvm.lifetime.start.p0(i64 4, ptr %7) #6
  call void @llvm.lifetime.start.p0(i64 8, ptr %8) #6
  call void @llvm.lifetime.start.p0(i64 8, ptr %9) #6
  store ptr null, ptr %9, align 8
  call void @llvm.lifetime.start.p0(i64 8, ptr %10) #6
  store ptr null, ptr %10, align 8
  br label %11

11:                                               ; preds = %3
  br label %12

12:                                               ; preds = %11
  %13 = call i32 @slurm_get_log_level()
  %14 = icmp sge i32 %13, 7
  br i1 %14, label %15, label %16

15:                                               ; preds = %12
  call void (i32, ptr, ...) @slurm_log_var(i32 noundef 7, ptr noundef @.str.63, ptr noundef @plugin_type, ptr noundef @__func__._handle_publish_name)
  br label %16

16:                                               ; preds = %15, %12
  br label %17

17:                                               ; preds = %16
  br label %18

18:                                               ; preds = %17
  br label %19

19:                                               ; preds = %18
  br label %20

20:                                               ; preds = %19
  %21 = load ptr, ptr %6, align 8
  %22 = call i32 @client_req_parse_body(ptr noundef %21)
  %23 = load ptr, ptr %6, align 8
  %24 = call zeroext i1 @client_req_get_str(ptr noundef %23, ptr noundef @.str.64, ptr noundef %9)
  %25 = load ptr, ptr %6, align 8
  %26 = call zeroext i1 @client_req_get_str(ptr noundef %25, ptr noundef @.str.65, ptr noundef %10)
  %27 = load ptr, ptr %9, align 8
  %28 = load ptr, ptr %10, align 8
  %29 = call i32 @name_publish_up(ptr noundef %27, ptr noundef %28)
  store i32 %29, ptr %7, align 4
  call void @slurm_xfree(ptr noundef %9)
  call void @slurm_xfree(ptr noundef %10)
  %30 = call ptr @client_resp_new()
  store ptr %30, ptr %8, align 8
  br label %31

31:                                               ; preds = %20
  %32 = load ptr, ptr %8, align 8
  %33 = getelementptr inbounds nuw %struct.client_response, ptr %32, i32 0, i32 0
  %34 = load i32, ptr %7, align 4
  %35 = icmp eq i32 %34, 0
  %36 = select i1 %35, ptr @.str.67, ptr @.str.68
  call void (ptr, ptr, ...) @slurm_xstrfmtcat(ptr noundef %33, ptr noundef @.str.66, ptr noundef %36)
  br label %37

37:                                               ; preds = %31
  br label %38

38:                                               ; preds = %37
  %39 = load ptr, ptr %8, align 8
  %40 = load i32, ptr %4, align 4
  %41 = call i32 @client_resp_send(ptr noundef %39, i32 noundef %40)
  store i32 %41, ptr %7, align 4
  %42 = load ptr, ptr %8, align 8
  call void @client_resp_free(ptr noundef %42)
  br label %43

43:                                               ; preds = %38
  br label %44

44:                                               ; preds = %43
  %45 = call i32 @slurm_get_log_level()
  %46 = icmp sge i32 %45, 7
  br i1 %46, label %47, label %48

47:                                               ; preds = %44
  call void (i32, ptr, ...) @slurm_log_var(i32 noundef 7, ptr noundef @.str.69, ptr noundef @plugin_type, ptr noundef @__func__._handle_publish_name)
  br label %48

48:                                               ; preds = %47, %44
  br label %49

49:                                               ; preds = %48
  br label %50

50:                                               ; preds = %49
  br label %51

51:                                               ; preds = %50
  br label %52

52:                                               ; preds = %51
  %53 = load i32, ptr %7, align 4
  call void @llvm.lifetime.end.p0(i64 8, ptr %10) #6
  call void @llvm.lifetime.end.p0(i64 8, ptr %9) #6
  call void @llvm.lifetime.end.p0(i64 8, ptr %8) #6
  call void @llvm.lifetime.end.p0(i64 4, ptr %7) #6
  ret i32 %53
}