; Function Attrs: nounwind uwtable
define internal i32 @_handle_publish_name(i32 noundef %0, i32 %1, ptr noundef %2) #0 {
  %4 = alloca ptr, align 8
  %5 = alloca ptr, align 8
  call void @llvm.lifetime.start.p0(i64 8, ptr nonnull %4) #8
  store ptr null, ptr %4, align 8
  call void @llvm.lifetime.start.p0(i64 8, ptr nonnull %5) #8
  store ptr null, ptr %5, align 8
  %6 = tail call i32 @slurm_get_log_level() #8
  %7 = icmp sgt i32 %6, 6
  br i1 %7, label %8, label %9

8:                                                ; preds = %3
  tail call void (i32, ptr, ...) @slurm_log_var(i32 noundef 7, ptr noundef nonnull @.str.63, ptr noundef nonnull @plugin_type, ptr noundef nonnull @__func__._handle_publish_name) #8
  br label %9

9:                                                ; preds = %8, %3
  %10 = tail call i32 @client_req_parse_body(ptr noundef %2) #8
  %11 = call zeroext i1 @client_req_get_str(ptr noundef %2, ptr noundef nonnull @.str.64, ptr noundef nonnull %4) #8
  %12 = call zeroext i1 @client_req_get_str(ptr noundef %2, ptr noundef nonnull @.str.65, ptr noundef nonnull %5) #8
  %13 = load ptr, ptr %4, align 8
  %14 = load ptr, ptr %5, align 8
  %15 = call i32 @name_publish_up(ptr noundef %13, ptr noundef %14) #8
  call void @slurm_xfree(ptr noundef nonnull %4) #8
  call void @slurm_xfree(ptr noundef nonnull %5) #8
  %16 = call ptr @client_resp_new() #8
  %17 = icmp eq i32 %15, 0
  %18 = select i1 %17, ptr @.str.67, ptr @.str.68
  call void (ptr, ptr, ...) @slurm_xstrfmtcat(ptr noundef %16, ptr noundef nonnull @.str.66, ptr noundef nonnull %18) #8
  %19 = call i32 @client_resp_send(ptr noundef %16, i32 noundef %0) #8
  call void @client_resp_free(ptr noundef %16) #8
  %20 = call i32 @slurm_get_log_level() #8
  %21 = icmp sgt i32 %20, 6
  br i1 %21, label %22, label %23

22:                                               ; preds = %9
  call void (i32, ptr, ...) @slurm_log_var(i32 noundef 7, ptr noundef nonnull @.str.69, ptr noundef nonnull @plugin_type, ptr noundef nonnull @__func__._handle_publish_name) #8
  br label %23

23:                                               ; preds = %22, %9
  call void @llvm.lifetime.end.p0(i64 8, ptr nonnull %5) #8
  call void @llvm.lifetime.end.p0(i64 8, ptr nonnull %4) #8
  ret i32 %19
}